target datalayout = "e-m:e-p270:32:32-p271:32:32-p272:64:64-i64:64-i128:128-f80:128-n8:16:32:64-S128"
target triple = "x86_64-pc-linux-gnu"

@.str.7 = private unnamed_addr constant [2 x i8] c" \00", align 1
@.str.41 = private unnamed_addr constant [6 x i8] c"match\00", align 1
@parse_iso26.pat0_source = internal constant [11 x i8] c"\\d-\\d{3}\\b\00", align 1
@parse_iso26.pat0 = internal global i64 4, align 8
@parse_iso26.pat_source = internal constant [13 x i8] c"\\b-(\\d{3})\\b\00", align 1
@parse_iso26.pat = internal global i64 4, align 8
@parse_iso26.rbimpl_id = internal global i64 0, align 8

; Function Attrs: inlinehint nounwind sspstrong willreturn memory(read) uwtable
define internal i64 @rb_intern_const(ptr noundef nonnull %0) #2 {
  %2 = alloca ptr, align 8
  %3 = alloca i64, align 8
  store ptr %0, ptr %2, align 8, !tbaa !10
  call void @llvm.lifetime.start.p0(i64 8, ptr %3) #21
  %4 = load ptr, ptr %2, align 8, !tbaa !10
  %5 = call i64 @strlen(ptr noundef %4) #22
  store i64 %5, ptr %3, align 8, !tbaa !6
  %6 = load ptr, ptr %2, align 8, !tbaa !10
  %7 = load i64, ptr %3, align 8, !tbaa !6
  %8 = call i64 @rb_intern2(ptr noundef %6, i64 noundef %7)
  call void @llvm.lifetime.end.p0(i64 8, ptr %3) #21
  ret i64 %8
}

; Function Attrs: inlinehint nounwind sspstrong memory(argmem: readwrite, inaccessiblemem: readwrite) uwtable
define internal i64 @rbimpl_intern_const(ptr noundef nonnull %0, ptr noundef nonnull %1) #7 {
  %3 = alloca ptr, align 8
  %4 = alloca ptr, align 8
  store ptr %0, ptr %3, align 8, !tbaa !20
  store ptr %1, ptr %4, align 8, !tbaa !10
  br label %5

5:                                                ; preds = %10, %2
  %6 = load ptr, ptr %3, align 8, !tbaa !20
  %7 = load i64, ptr %6, align 8, !tbaa !6
  %8 = icmp ne i64 %7, 0
  %9 = xor i1 %8, true
  br i1 %9, label %10, label %14

10:                                               ; preds = %5
  %11 = load ptr, ptr %4, align 8, !tbaa !10
  %12 = call i64 @rb_intern_const(ptr noundef %11) #22
  %13 = load ptr, ptr %3, align 8, !tbaa !20
  store i64 %12, ptr %13, align 8, !tbaa !6
  br label %5, !llvm.loop !35

14:                                               ; preds = %5
  %15 = load ptr, ptr %3, align 8, !tbaa !20
  %16 = load i64, ptr %15, align 8, !tbaa !6
  ret i64 %16
}

; Function Attrs: nounwind sspstrong uwtable
define internal i64 @regcomp(ptr noundef %0, i64 noundef %1, i32 noundef %2) #0 {
  %4 = alloca ptr, align 8
  %5 = alloca i64, align 8
  %6 = alloca i32, align 4
  %7 = alloca i64, align 8
  store ptr %0, ptr %4, align 8, !tbaa !10
  store i64 %1, ptr %5, align 8, !tbaa !6
  store i32 %2, ptr %6, align 4, !tbaa !13
  call void @llvm.lifetime.start.p0(i64 8, ptr %7) #21
  %8 = load ptr, ptr %4, align 8, !tbaa !10
  %9 = load i64, ptr %5, align 8, !tbaa !6
  %10 = load i32, ptr %6, align 4, !tbaa !13
  %11 = call i64 @rb_reg_new(ptr noundef %8, i64 noundef %9, i32 noundef %10)
  store i64 %11, ptr %7, align 8, !tbaa !6
  %12 = load i64, ptr %7, align 8, !tbaa !6
  %13 = call i64 @rb_obj_freeze(i64 noundef %12)
  %14 = load i64, ptr %7, align 8, !tbaa !6
  call void @rb_gc_register_mark_object(i64 noundef %14)
  %15 = load i64, ptr %7, align 8, !tbaa !6
  call void @llvm.lifetime.end.p0(i64 8, ptr %7) #21
  ret i64 %15
}

; Function Attrs: inlinehint nounwind sspstrong willreturn memory(none) uwtable
define internal zeroext i1 @RB_NIL_P(i64 noundef %0) #4 {
  %2 = alloca i64, align 8
  store i64 %0, ptr %2, align 8, !tbaa !6
  %3 = load i64, ptr %2, align 8, !tbaa !6
  %4 = icmp eq i64 %3, 4
  ret i1 %4
}

; Function Attrs: nounwind sspstrong uwtable
define internal i32 @parse_iso26(i64 noundef %0, i64 noundef %1) #0 {
  %3 = alloca i32, align 4
  %4 = alloca i64, align 8
  %5 = alloca i64, align 8
  %6 = alloca i64, align 8
  store i64 %0, ptr %4, align 8, !tbaa !6
  store i64 %1, ptr %5, align 8, !tbaa !6
  br label %7

7:                                                ; preds = %2
  %8 = load i64, ptr @parse_iso26.pat0, align 8, !tbaa !6
  %9 = call zeroext i1 @RB_NIL_P(i64 noundef %8) #23
  br i1 %9, label %10, label %12

10:                                               ; preds = %7
  %11 = call i64 @regcomp(ptr noundef @parse_iso26.pat0_source, i64 noundef 10, i32 noundef 0)
  store i64 %11, ptr @parse_iso26.pat0, align 8, !tbaa !6
  br label %12

12:                                               ; preds = %10, %7
  br label %13

13:                                               ; preds = %12
  br label %14

14:                                               ; preds = %13
  %15 = load i64, ptr @parse_iso26.pat, align 8, !tbaa !6
  %16 = call zeroext i1 @RB_NIL_P(i64 noundef %15) #23
  br i1 %16, label %17, label %19

17:                                               ; preds = %14
  %18 = call i64 @regcomp(ptr noundef @parse_iso26.pat_source, i64 noundef 12, i32 noundef 0)
  store i64 %18, ptr @parse_iso26.pat, align 8, !tbaa !6
  br label %19

19:                                               ; preds = %17, %14
  br label %20

20:                                               ; preds = %19
  %21 = load i64, ptr @parse_iso26.pat0, align 8, !tbaa !6
  %22 = call i64 @rbimpl_intern_const(ptr noundef @parse_iso26.rbimpl_id, ptr noundef @.str.41) #25
  store i64 %22, ptr %6, align 8, !tbaa !6
  %23 = load i64, ptr %6, align 8, !tbaa !6
  %24 = load i64, ptr %4, align 8, !tbaa !6
  %25 = call i64 (i64, i64, i32, ...) @rb_funcall(i64 noundef %21, i64 noundef %23, i32 noundef 1, i64 noundef %24)
  %26 = call zeroext i1 @RB_NIL_P(i64 noundef %25) #23
  br i1 %26, label %28, label %27

27:                                               ; preds = %20
  store i32 0, ptr %3, align 4
  br label %35

28:                                               ; preds = %20
  br label %29

29:                                               ; preds = %28
  %30 = load i64, ptr %4, align 8, !tbaa !6
  %31 = call i64 @rb_str_new_static(ptr noundef @.str.7, i64 noundef 1)
  %32 = load i64, ptr @parse_iso26.pat, align 8, !tbaa !6
  %33 = load i64, ptr %5, align 8, !tbaa !6
  %34 = call i32 @subx(i64 noundef %30, i64 noundef %31, i64 noundef %32, i64 noundef %33, ptr noundef @parse_iso26_cb)
  store i32 %34, ptr %3, align 4
  br label %35

35:                                               ; preds = %27, %29
  %36 = load i32, ptr %3, align 4
  ret i32 %36
}